target datalayout = "e-m:e-p270:32:32-p271:32:32-p272:64:64-i64:64-i128:128-f80:128-n8:16:32:64-S128"
target triple = "x86_64-pc-linux-gnu"

%"class.open_spiel::solitaire::Card" = type { i32, i32, i32, i8, i32 }
%"class.std::vector.58" = type { %"struct.std::_Vector_base.59" }
%"struct.std::_Vector_base.59" = type { %"struct.std::_Vector_base<open_spiel::solitaire::Card, std::allocator<open_spiel::solitaire::Card>>::_Vector_impl" }
%"struct.std::_Vector_base<open_spiel::solitaire::Card, std::allocator<open_spiel::solitaire::Card>>::_Vector_impl" = type { %"struct.std::_Vector_base<open_spiel::solitaire::Card, std::allocator<open_spiel::solitaire::Card>>::_Vector_impl_data" }
%"struct.std::_Vector_base<open_spiel::solitaire::Card, std::allocator<open_spiel::solitaire::Card>>::_Vector_impl_data" = type { ptr, ptr, ptr }
%"class.__gnu_cxx::__normal_iterator.65" = type { ptr }
%"class.open_spiel::solitaire::Pile" = type { ptr, %"class.std::vector.58", i32, i32, i32, i32 }

; Function Attrs: mustprogress nounwind uwtable
define linkonce_odr void @_ZN9__gnu_cxx17__normal_iteratorIPN10open_spiel9solitaire4CardESt6vectorIS3_SaIS3_EEEC2ERKS4_(ptr noundef nonnull align 8 dereferenceable(8) %0, ptr noundef nonnull align 8 dereferenceable(8) %1) unnamed_addr #5 comdat align 2 {
  %3 = alloca ptr, align 8
  %4 = alloca ptr, align 8
  store ptr %0, ptr %3, align 8
  store ptr %1, ptr %4, align 8
  %5 = load ptr, ptr %3, align 8
  %6 = getelementptr inbounds nuw %"class.__gnu_cxx::__normal_iterator.65", ptr %5, i32 0, i32 0
  %7 = load ptr, ptr %4, align 8
  %8 = load ptr, ptr %7, align 8
  store ptr %8, ptr %6, align 8
  ret void
}

; Function Attrs: mustprogress nounwind uwtable
define linkonce_odr noundef nonnull align 4 dereferenceable(20) ptr @_ZNK9__gnu_cxx17__normal_iteratorIPN10open_spiel9solitaire4CardESt6vectorIS3_SaIS3_EEEdeEv(ptr noundef nonnull align 8 dereferenceable(8) %0) #5 comdat align 2 {
  %2 = alloca ptr, align 8
  store ptr %0, ptr %2, align 8
  %3 = load ptr, ptr %2, align 8
  %4 = getelementptr inbounds nuw %"class.__gnu_cxx::__normal_iterator.65", ptr %3, i32 0, i32 0
  %5 = load ptr, ptr %4, align 8
  ret ptr %5
}

; Function Attrs: mustprogress nounwind uwtable
define linkonce_odr ptr @_ZNK9__gnu_cxx17__normal_iteratorIPN10open_spiel9solitaire4CardESt6vectorIS3_SaIS3_EEEmiEl(ptr noundef nonnull align 8 dereferenceable(8) %0, i64 noundef %1) #5 comdat align 2 {
  %3 = alloca %"class.__gnu_cxx::__normal_iterator.65", align 8
  %4 = alloca ptr, align 8
  %5 = alloca i64, align 8
  %6 = alloca ptr, align 8
  store ptr %0, ptr %4, align 8
  store i64 %1, ptr %5, align 8
  %7 = load ptr, ptr %4, align 8
  %8 = getelementptr inbounds nuw %"class.__gnu_cxx::__normal_iterator.65", ptr %7, i32 0, i32 0
  %9 = load ptr, ptr %8, align 8
  %10 = load i64, ptr %5, align 8
  %11 = sub i64 0, %10
  %12 = getelementptr inbounds %"class.open_spiel::solitaire::Card", ptr %9, i64 %11
  store ptr %12, ptr %6, align 8
  call void @_ZN9__gnu_cxx17__normal_iteratorIPN10open_spiel9solitaire4CardESt6vectorIS3_SaIS3_EEEC2ERKS4_(ptr noundef nonnull align 8 dereferenceable(8) %3, ptr noundef nonnull align 8 dereferenceable(8) %6) #3
  %13 = getelementptr inbounds nuw %"class.__gnu_cxx::__normal_iterator.65", ptr %3, i32 0, i32 0
  %14 = load ptr, ptr %13, align 8
  ret ptr %14
}

; Function Attrs: mustprogress nounwind uwtable
define linkonce_odr ptr @_ZNSt6vectorIN10open_spiel9solitaire4CardESaIS2_EE3endEv(ptr noundef nonnull align 8 dereferenceable(24) %0) #5 comdat align 2 {
  %2 = alloca %"class.__gnu_cxx::__normal_iterator.65", align 8
  %3 = alloca ptr, align 8
  store ptr %0, ptr %3, align 8
  %4 = load ptr, ptr %3, align 8
  %5 = getelementptr inbounds nuw %"struct.std::_Vector_base.59", ptr %4, i32 0, i32 0
  %6 = getelementptr inbounds nuw %"struct.std::_Vector_base<open_spiel::solitaire::Card, std::allocator<open_spiel::solitaire::Card>>::_Vector_impl_data", ptr %5, i32 0, i32 1
  call void @_ZN9__gnu_cxx17__normal_iteratorIPN10open_spiel9solitaire4CardESt6vectorIS3_SaIS3_EEEC2ERKS4_(ptr noundef nonnull align 8 dereferenceable(8) %2, ptr noundef nonnull align 8 dereferenceable(8) %6) #3
  %7 = getelementptr inbounds nuw %"class.__gnu_cxx::__normal_iterator.65", ptr %2, i32 0, i32 0
  %8 = load ptr, ptr %7, align 8
  ret ptr %8
}

; Function Attrs: mustprogress nounwind uwtable
define void @_ZN10open_spiel9solitaire4Card9SetHiddenEb(ptr noundef nonnull align 4 dereferenceable(20) %0, i1 noundef zeroext %1) #5 align 2 {
  %3 = alloca ptr, align 8
  %4 = alloca i8, align 1
  store ptr %0, ptr %3, align 8
  %5 = zext i1 %1 to i8
  store i8 %5, ptr %4, align 1
  %6 = load ptr, ptr %3, align 8
  %7 = load i8, ptr %4, align 1
  %8 = trunc i8 %7 to i1
  %9 = getelementptr inbounds nuw %"class.open_spiel::solitaire::Card", ptr %6, i32 0, i32 3
  %10 = zext i1 %8 to i8
  store i8 %10, ptr %9, align 4
  ret void
}

; Function Attrs: mustprogress nounwind uwtable
define void @_ZN10open_spiel9solitaire4Card7SetSuitENS0_8SuitTypeE(ptr noundef nonnull align 4 dereferenceable(20) %0, i32 noundef %1) #5 align 2 {
  %3 = alloca ptr, align 8
  %4 = alloca i32, align 4
  store ptr %0, ptr %3, align 8
  store i32 %1, ptr %4, align 4
  %5 = load ptr, ptr %3, align 8
  %6 = load i32, ptr %4, align 4
  %7 = getelementptr inbounds nuw %"class.open_spiel::solitaire::Card", ptr %5, i32 0, i32 1
  store i32 %6, ptr %7, align 4
  ret void
}

; Function Attrs: mustprogress nounwind uwtable
define noundef i32 @_ZNK10open_spiel9solitaire4Card7GetSuitEv(ptr noundef nonnull align 4 dereferenceable(20) %0) #5 align 2 {
  %2 = alloca ptr, align 8
  store ptr %0, ptr %2, align 8
  %3 = load ptr, ptr %2, align 8
  %4 = getelementptr inbounds nuw %"class.open_spiel::solitaire::Card", ptr %3, i32 0, i32 1
  %5 = load i32, ptr %4, align 4
  ret i32 %5
}

; Function Attrs: mustprogress nounwind uwtable
define void @_ZN10open_spiel9solitaire4Card7SetRankENS0_8RankTypeE(ptr noundef nonnull align 4 dereferenceable(20) %0, i32 noundef %1) #5 align 2 {
  %3 = alloca ptr, align 8
  %4 = alloca i32, align 4
  store ptr %0, ptr %3, align 8
  store i32 %1, ptr %4, align 4
  %5 = load ptr, ptr %3, align 8
  %6 = load i32, ptr %4, align 4
  %7 = getelementptr inbounds nuw %"class.open_spiel::solitaire::Card", ptr %5, i32 0, i32 0
  store i32 %6, ptr %7, align 4
  ret void
}

; Function Attrs: mustprogress nounwind uwtable
define noundef i32 @_ZNK10open_spiel9solitaire4Card7GetRankEv(ptr noundef nonnull align 4 dereferenceable(20) %0) #5 align 2 {
  %2 = alloca ptr, align 8
  store ptr %0, ptr %2, align 8
  %3 = load ptr, ptr %2, align 8
  %4 = getelementptr inbounds nuw %"class.open_spiel::solitaire::Card", ptr %3, i32 0, i32 0
  %5 = load i32, ptr %4, align 4
  ret i32 %5
}

; Function Attrs: mustprogress nounwind uwtable
define linkonce_odr noundef nonnull align 4 dereferenceable(20) ptr @_ZNSt6vectorIN10open_spiel9solitaire4CardESaIS2_EE4backEv(ptr noundef nonnull align 8 dereferenceable(24) %0) #5 comdat align 2 {
  %2 = alloca ptr, align 8
  %3 = alloca %"class.__gnu_cxx::__normal_iterator.65", align 8
  %4 = alloca %"class.__gnu_cxx::__normal_iterator.65", align 8
  store ptr %0, ptr %2, align 8
  %5 = load ptr, ptr %2, align 8
  %6 = call ptr @_ZNSt6vectorIN10open_spiel9solitaire4CardESaIS2_EE3endEv(ptr noundef nonnull align 8 dereferenceable(24) %5) #3
  %7 = getelementptr inbounds nuw %"class.__gnu_cxx::__normal_iterator.65", ptr %4, i32 0, i32 0
  store ptr %6, ptr %7, align 8
  %8 = call ptr @_ZNK9__gnu_cxx17__normal_iteratorIPN10open_spiel9solitaire4CardESt6vectorIS3_SaIS3_EEEmiEl(ptr noundef nonnull align 8 dereferenceable(8) %4, i64 noundef 1) #3
  %9 = getelementptr inbounds nuw %"class.__gnu_cxx::__normal_iterator.65", ptr %3, i32 0, i32 0
  store ptr %8, ptr %9, align 8
  %10 = call noundef nonnull align 4 dereferenceable(20) ptr @_ZNK9__gnu_cxx17__normal_iteratorIPN10open_spiel9solitaire4CardESt6vectorIS3_SaIS3_EEEdeEv(ptr noundef nonnull align 8 dereferenceable(8) %3) #3
  ret ptr %10
}

; Function Attrs: mustprogress nounwind uwtable
define void @_ZN10open_spiel9solitaire7Tableau6RevealENS0_4CardE(ptr noundef nonnull align 8 dereferenceable(48) %0, ptr noundef byval(%"class.open_spiel::solitaire::Card") align 8 %1) unnamed_addr #5 align 2 {
  %3 = alloca ptr, align 8
  store ptr %0, ptr %3, align 8
  %4 = load ptr, ptr %3, align 8
  %5 = getelementptr inbounds nuw %"class.open_spiel::solitaire::Pile", ptr %4, i32 0, i32 1
  %6 = call noundef nonnull align 4 dereferenceable(20) ptr @_ZNSt6vectorIN10open_spiel9solitaire4CardESaIS2_EE4backEv(ptr noundef nonnull align 8 dereferenceable(24) %5) #3
  %7 = call noundef i32 @_ZNK10open_spiel9solitaire4Card7GetRankEv(ptr noundef nonnull align 4 dereferenceable(20) %1)
  call void @_ZN10open_spiel9solitaire4Card7SetRankENS0_8RankTypeE(ptr noundef nonnull align 4 dereferenceable(20) %6, i32 noundef %7)
  %8 = getelementptr inbounds nuw %"class.open_spiel::solitaire::Pile", ptr %4, i32 0, i32 1
  %9 = call noundef nonnull align 4 dereferenceable(20) ptr @_ZNSt6vectorIN10open_spiel9solitaire4CardESaIS2_EE4backEv(ptr noundef nonnull align 8 dereferenceable(24) %8) #3
  %10 = call noundef i32 @_ZNK10open_spiel9solitaire4Card7GetSuitEv(ptr noundef nonnull align 4 dereferenceable(20) %1)
  call void @_ZN10open_spiel9solitaire4Card7SetSuitENS0_8SuitTypeE(ptr noundef nonnull align 4 dereferenceable(20) %9, i32 noundef %10)
  %11 = getelementptr inbounds nuw %"class.open_spiel::solitaire::Pile", ptr %4, i32 0, i32 1
  %12 = call noundef nonnull align 4 dereferenceable(20) ptr @_ZNSt6vectorIN10open_spiel9solitaire4CardESaIS2_EE4backEv(ptr noundef nonnull align 8 dereferenceable(24) %11) #3
  call void @_ZN10open_spiel9solitaire4Card9SetHiddenEb(ptr noundef nonnull align 4 dereferenceable(20) %12, i1 noundef zeroext false)
  ret void
}